; Function Attrs: nounwind uwtable
define zeroext i8 @l_Array_qsort_sort___at_Lean_Compiler_LCNF_AlphaEqv_sortAlts___spec__1___lambda__1(ptr noundef %0, ptr noundef %1) local_unnamed_addr #0 {
  %3 = ptrtoint ptr %0 to i64
  %4 = and i64 %3, 1
  %.not.i = icmp eq i64 %4, 0
  br i1 %.not.i, label %8, label %5

5:                                                ; preds = %2
  %6 = lshr i64 %3, 1
  %7 = trunc i64 %6 to i32
  br label %lean_obj_tag.exit

8:                                                ; preds = %2
  %9 = getelementptr i8, ptr %0, i64 4
  %.val.i = load i32, ptr %9, align 4
  %10 = lshr i32 %.val.i, 24
  br label %lean_obj_tag.exit

lean_obj_tag.exit:                                ; preds = %5, %8
  %.0.i = phi i32 [ %7, %5 ], [ %10, %8 ]
  %11 = icmp eq i32 %.0.i, 0
  br i1 %11, label %12, label %28

12:                                               ; preds = %lean_obj_tag.exit
  %13 = ptrtoint ptr %1 to i64
  %14 = and i64 %13, 1
  %.not.i9 = icmp eq i64 %14, 0
  br i1 %.not.i9, label %18, label %15

15:                                               ; preds = %12
  %16 = lshr i64 %13, 1
  %17 = trunc i64 %16 to i32
  br label %lean_obj_tag.exit12

18:                                               ; preds = %12
  %19 = getelementptr i8, ptr %1, i64 4
  %.val.i11 = load i32, ptr %19, align 4
  %20 = lshr i32 %.val.i11, 24
  br label %lean_obj_tag.exit12

lean_obj_tag.exit12:                              ; preds = %15, %18
  %.0.i10 = phi i32 [ %17, %15 ], [ %20, %18 ]
  %21 = icmp eq i32 %.0.i10, 0
  br i1 %21, label %22, label %28

22:                                               ; preds = %lean_obj_tag.exit12
  %23 = getelementptr inbounds nuw i8, ptr %0, i64 8
  %24 = load ptr, ptr %23, align 8, !tbaa !4
  %25 = getelementptr inbounds nuw i8, ptr %1, i64 8
  %26 = load ptr, ptr %25, align 8, !tbaa !4
  %27 = tail call zeroext i8 @l_Lean_Name_lt(ptr noundef %24, ptr noundef %26) #4
  br label %28

28:                                               ; preds = %lean_obj_tag.exit, %lean_obj_tag.exit12, %22
  %.0 = phi i8 [ %27, %22 ], [ 1, %lean_obj_tag.exit12 ], [ 0, %lean_obj_tag.exit ]
  ret i8 %.0
}